target datalayout = "e-m:e-p270:32:32-p271:32:32-p272:64:64-i64:64-i128:128-f80:128-n8:16:32:64-S128"
target triple = "x86_64-pc-linux-gnu"

%struct.Curl_easy = type { i32, i64, i64, ptr, %struct.Curl_llist_node, %struct.Curl_llist_node, i32, i32, %struct.Curl_message, %struct.easy_pollset, %struct.Names, ptr, ptr, ptr, ptr, %struct.SingleRequest, %struct.UserDefined, ptr, ptr, ptr, %struct.Progress, %struct.UrlState, ptr, %struct.PureInfo, %struct.curl_tlssessioninfo }
%struct.Curl_llist_node = type { ptr, ptr, ptr, ptr }
%struct.Curl_message = type { %struct.Curl_llist_node, %struct.CURLMsg }
%struct.CURLMsg = type { i32, ptr, %union.anon }
%union.anon = type { ptr }
%struct.easy_pollset = type { [5 x i32], i32, [5 x i8] }
%struct.Names = type { ptr, i32 }
%struct.SingleRequest = type <{ i64, i64, i64, i64, %struct.curltime, i32, i32, i32, i32, i64, i32, i32, i8, i8, [2 x i8], i32, ptr, ptr, %struct.bufq, i64, i64, ptr, ptr, %union.anon.0, ptr, i8, i32, [3 x i8] }>
%struct.curltime = type { i64, i32 }
%struct.bufq = type { ptr, ptr, ptr, ptr, i64, i64, i64, i32 }
%union.anon.0 = type { ptr }
%struct.UserDefined = type <{ ptr, ptr, ptr, ptr, ptr, ptr, i64, i64, i64, ptr, ptr, i64, ptr, ptr, ptr, ptr, ptr, ptr, ptr, ptr, ptr, ptr, ptr, ptr, ptr, ptr, ptr, ptr, ptr, ptr, ptr, ptr, ptr, ptr, ptr, i64, i64, i64, i64, i64, i64, i64, i64, i64, ptr, ptr, %struct.curl_mimepart, ptr, ptr, ptr, i64, %struct.ssl_config_data, %struct.ssl_config_data, ptr, i16, i8, i8, %struct.ssl_general_config, i32, i32, i32, [4 x i8], ptr, ptr, i64, i32, i8, i8, i8, i8, ptr, ptr, ptr, i32, [4 x i8], [74 x ptr], [8 x ptr], i32, i32, i32, [4 x i8], ptr, i32, [4 x i8], ptr, ptr, ptr, ptr, ptr, i32, i32, i32, i32, i32, i32, i32, i32, i64, ptr, ptr, i64, ptr, i64, ptr, ptr, ptr, ptr, i32, i16, i16, i16, i8, i8, i8, i8, i8, i8, i8, i8, i64, [6 x i8] }>
%struct.curl_mimepart = type { ptr, ptr, i32, i32, ptr, ptr, ptr, ptr, ptr, ptr, ptr, ptr, ptr, ptr, ptr, i64, %struct.mime_state, ptr, %struct.mime_encoder_state, i64 }
%struct.mime_state = type { i32, ptr, i64 }
%struct.mime_encoder_state = type { i64, i64, i64, [256 x i8] }
%struct.ssl_config_data = type { %struct.ssl_primary_config, i64, ptr, ptr, ptr, ptr, ptr, ptr, ptr, i16 }
%struct.ssl_primary_config = type { ptr, ptr, ptr, ptr, ptr, ptr, ptr, ptr, ptr, ptr, ptr, ptr, ptr, ptr, i8, i32, i8, i8 }
%struct.ssl_general_config = type { i32 }
%struct.Progress = type { i64, %struct.pgrs_dir, %struct.pgrs_dir, i64, i64, i32, i32, i64, i64, i64, i64, i64, i64, i64, i64, i64, %struct.curltime, %struct.curltime, %struct.curltime, %struct.curltime, %struct.curltime, [6 x i64], [6 x %struct.curltime], i32, i8 }
%struct.pgrs_dir = type { i64, i64, i64, %struct.pgrs_measure }
%struct.pgrs_measure = type { %struct.curltime, i64 }
%struct.UrlState = type { %struct.curltime, i64, i64, %struct.dynbuf, ptr, i64, ptr, i32, i32, i32, ptr, i32, i64, i32, ptr, %struct.digestdata, %struct.digestdata, %struct.auth, %struct.auth, %struct.Curl_async, ptr, i8, %struct.curltime, %struct.Curl_tree, %struct.Curl_llist, [15 x %struct.time_node], ptr, ptr, i64, i64, i64, i64, [32 x i8], i64, ptr, ptr, ptr, %struct.urlpieces, ptr, ptr, ptr, ptr, ptr, i64, %struct.dynbuf, %struct.Curl_llist, [2 x %struct.curl_header], ptr, i32, ptr, ptr, %struct.store_netrc, %struct.dynamically_allocated_data, i8, i8, i8, i8, i32 }
%struct.digestdata = type { ptr, ptr, ptr, ptr, ptr, ptr, i32, i8, i8 }
%struct.auth = type { i64, i64, i64, i8 }
%struct.Curl_async = type { ptr, ptr, ptr, ptr, i32, i32, i8 }
%struct.Curl_tree = type { ptr, ptr, ptr, ptr, %struct.curltime, ptr }
%struct.time_node = type { %struct.Curl_llist_node, %struct.curltime, i32 }
%struct.urlpieces = type { ptr, ptr, ptr, ptr, ptr, ptr, ptr, ptr }
%struct.dynbuf = type { ptr, i64, i64, i64 }
%struct.Curl_llist = type { ptr, ptr, ptr, i64 }
%struct.curl_header = type { ptr, ptr, i64, i64, i32, ptr }
%struct.store_netrc = type { %struct.dynbuf, ptr, i8 }
%struct.dynamically_allocated_data = type { ptr, ptr, ptr, ptr, ptr, ptr, ptr, ptr, ptr, ptr, ptr, ptr, ptr, ptr }
%struct.PureInfo = type { i32, i32, i32, i64, i64, i64, i64, i64, i64, i64, ptr, ptr, i64, i32, %struct.ip_quadruple, i32, ptr, i32, %struct.curl_certinfo, i32, i8 }
%struct.ip_quadruple = type { [46 x i8], [46 x i8], i32, i32 }
%struct.curl_certinfo = type { i32, ptr }
%struct.curl_tlssessioninfo = type { i32, ptr }

@.str = private unnamed_addr constant [77 x i8] c"Operation too slow. Less than %ld bytes/sec transferred the last %ld seconds\00", align 1

; Function Attrs: nounwind uwtable
define hidden i32 @Curl_speedcheck(ptr noundef %0, i64 %1, i32 %2) #0 {
  %4 = alloca i32, align 4
  %5 = alloca %struct.curltime, align 8
  %6 = alloca ptr, align 8
  %7 = alloca i64, align 8
  %8 = alloca i32, align 4
  %9 = getelementptr inbounds nuw { i64, i32 }, ptr %5, i32 0, i32 0
  store i64 %1, ptr %9, align 8
  %10 = getelementptr inbounds nuw { i64, i32 }, ptr %5, i32 0, i32 1
  store i32 %2, ptr %10, align 8
  store ptr %0, ptr %6, align 8, !tbaa !3
  %11 = load ptr, ptr %6, align 8, !tbaa !3
  %12 = getelementptr inbounds nuw %struct.Curl_easy, ptr %11, i32 0, i32 15
  %13 = getelementptr inbounds nuw %struct.SingleRequest, ptr %12, i32 0, i32 11
  %14 = load i32, ptr %13, align 4, !tbaa !8
  %15 = and i32 %14, 16
  %16 = icmp ne i32 %15, 0
  br i1 %16, label %17, label %18

17:                                               ; preds = %3
  store i32 0, ptr %4, align 4
  br label %101

18:                                               ; preds = %3
  %19 = load ptr, ptr %6, align 8, !tbaa !3
  %20 = getelementptr inbounds nuw %struct.Curl_easy, ptr %19, i32 0, i32 20
  %21 = getelementptr inbounds nuw %struct.Progress, ptr %20, i32 0, i32 3
  %22 = load i64, ptr %21, align 8, !tbaa !77
  %23 = icmp sge i64 %22, 0
  br i1 %23, label %24, label %92

24:                                               ; preds = %18
  %25 = load ptr, ptr %6, align 8, !tbaa !3
  %26 = getelementptr inbounds nuw %struct.Curl_easy, ptr %25, i32 0, i32 16
  %27 = getelementptr inbounds nuw %struct.UserDefined, ptr %26, i32 0, i32 40
  %28 = load i64, ptr %27, align 8, !tbaa !78
  %29 = icmp ne i64 %28, 0
  br i1 %29, label %30, label %92

30:                                               ; preds = %24
  %31 = load ptr, ptr %6, align 8, !tbaa !3
  %32 = getelementptr inbounds nuw %struct.Curl_easy, ptr %31, i32 0, i32 20
  %33 = getelementptr inbounds nuw %struct.Progress, ptr %32, i32 0, i32 3
  %34 = load i64, ptr %33, align 8, !tbaa !77
  %35 = load ptr, ptr %6, align 8, !tbaa !3
  %36 = getelementptr inbounds nuw %struct.Curl_easy, ptr %35, i32 0, i32 16
  %37 = getelementptr inbounds nuw %struct.UserDefined, ptr %36, i32 0, i32 39
  %38 = load i64, ptr %37, align 8, !tbaa !79
  %39 = icmp slt i64 %34, %38
  br i1 %39, label %40, label %86

40:                                               ; preds = %30
  %41 = load ptr, ptr %6, align 8, !tbaa !3
  %42 = getelementptr inbounds nuw %struct.Curl_easy, ptr %41, i32 0, i32 21
  %43 = getelementptr inbounds nuw %struct.UrlState, ptr %42, i32 0, i32 0
  %44 = getelementptr inbounds nuw %struct.curltime, ptr %43, i32 0, i32 0
  %45 = load i64, ptr %44, align 8, !tbaa !80
  %46 = icmp ne i64 %45, 0
  br i1 %46, label %51, label %47

47:                                               ; preds = %40
  %48 = load ptr, ptr %6, align 8, !tbaa !3
  %49 = getelementptr inbounds nuw %struct.Curl_easy, ptr %48, i32 0, i32 21
  %50 = getelementptr inbounds nuw %struct.UrlState, ptr %49, i32 0, i32 0
  call void @llvm.memcpy.p0.p0.i64(ptr align 8 %50, ptr align 8 %5, i64 16, i1 false), !tbaa.struct !81
  br label %85

51:                                               ; preds = %40
  call void @llvm.lifetime.start.p0(i64 8, ptr %7) #5
  %52 = load ptr, ptr %6, align 8, !tbaa !3
  %53 = getelementptr inbounds nuw %struct.Curl_easy, ptr %52, i32 0, i32 21
  %54 = getelementptr inbounds nuw %struct.UrlState, ptr %53, i32 0, i32 0
  %55 = getelementptr inbounds nuw { i64, i32 }, ptr %5, i32 0, i32 0
  %56 = load i64, ptr %55, align 8
  %57 = getelementptr inbounds nuw { i64, i32 }, ptr %5, i32 0, i32 1
  %58 = load i32, ptr %57, align 8
  %59 = getelementptr inbounds nuw { i64, i32 }, ptr %54, i32 0, i32 0
  %60 = load i64, ptr %59, align 8
  %61 = getelementptr inbounds nuw { i64, i32 }, ptr %54, i32 0, i32 1
  %62 = load i32, ptr %61, align 8
  %63 = call i64 @Curl_timediff(i64 %56, i32 %58, i64 %60, i32 %62)
  store i64 %63, ptr %7, align 8, !tbaa !82
  %64 = load i64, ptr %7, align 8, !tbaa !82
  %65 = load ptr, ptr %6, align 8, !tbaa !3
  %66 = getelementptr inbounds nuw %struct.Curl_easy, ptr %65, i32 0, i32 16
  %67 = getelementptr inbounds nuw %struct.UserDefined, ptr %66, i32 0, i32 40
  %68 = load i64, ptr %67, align 8, !tbaa !78
  %69 = mul nsw i64 %68, 1000
  %70 = icmp sge i64 %64, %69
  br i1 %70, label %71, label %81

71:                                               ; preds = %51
  %72 = load ptr, ptr %6, align 8, !tbaa !3
  %73 = load ptr, ptr %6, align 8, !tbaa !3
  %74 = getelementptr inbounds nuw %struct.Curl_easy, ptr %73, i32 0, i32 16
  %75 = getelementptr inbounds nuw %struct.UserDefined, ptr %74, i32 0, i32 39
  %76 = load i64, ptr %75, align 8, !tbaa !79
  %77 = load ptr, ptr %6, align 8, !tbaa !3
  %78 = getelementptr inbounds nuw %struct.Curl_easy, ptr %77, i32 0, i32 16
  %79 = getelementptr inbounds nuw %struct.UserDefined, ptr %78, i32 0, i32 40
  %80 = load i64, ptr %79, align 8, !tbaa !78
  call void (ptr, ptr, ...) @Curl_failf(ptr noundef %72, ptr noundef @.str, i64 noundef %76, i64 noundef %80)
  store i32 28, ptr %4, align 4
  store i32 1, ptr %8, align 4
  br label %82

81:                                               ; preds = %51
  store i32 0, ptr %8, align 4
  br label %82

82:                                               ; preds = %81, %71
  call void @llvm.lifetime.end.p0(i64 8, ptr %7) #5
  %83 = load i32, ptr %8, align 4
  switch i32 %83, label %103 [
    i32 0, label %84
    i32 1, label %101
  ]

84:                                               ; preds = %82
  br label %85

85:                                               ; preds = %84, %47
  br label %91

86:                                               ; preds = %30
  %87 = load ptr, ptr %6, align 8, !tbaa !3
  %88 = getelementptr inbounds nuw %struct.Curl_easy, ptr %87, i32 0, i32 21
  %89 = getelementptr inbounds nuw %struct.UrlState, ptr %88, i32 0, i32 0
  %90 = getelementptr inbounds nuw %struct.curltime, ptr %89, i32 0, i32 0
  store i64 0, ptr %90, align 8, !tbaa !80
  br label %91

91:                                               ; preds = %86, %85
  br label %92

92:                                               ; preds = %91, %24, %18
  %93 = load ptr, ptr %6, align 8, !tbaa !3
  %94 = getelementptr inbounds nuw %struct.Curl_easy, ptr %93, i32 0, i32 16
  %95 = getelementptr inbounds nuw %struct.UserDefined, ptr %94, i32 0, i32 39
  %96 = load i64, ptr %95, align 8, !tbaa !79
  %97 = icmp ne i64 %96, 0
  br i1 %97, label %98, label %100

98:                                               ; preds = %92
  %99 = load ptr, ptr %6, align 8, !tbaa !3
  call void @Curl_expire(ptr noundef %99, i64 noundef 1000, i32 noundef 9)
  br label %100

100:                                              ; preds = %98, %92
  store i32 0, ptr %4, align 4
  br label %101

101:                                              ; preds = %100, %82, %17
  %102 = load i32, ptr %4, align 4
  ret i32 %102

103:                                              ; preds = %82
  unreachable
}