; Function Attrs: nounwind uwtable
define hidden range(i32 0, 29) i32 @Curl_speedcheck(ptr noundef %0, i64 %1, i32 %2) local_unnamed_addr #2 {
  %4 = getelementptr inbounds nuw i8, ptr %0, i64 316
  %5 = load i32, ptr %4, align 4, !tbaa !3
  %6 = and i32 %5, 16
  %.not = icmp eq i32 %6, 0
  br i1 %.not, label %7, label %34

7:                                                ; preds = %3
  %8 = getelementptr inbounds nuw i8, ptr %0, i64 2800
  %9 = load i64, ptr %8, align 8, !tbaa !75
  %10 = icmp sgt i64 %9, -1
  br i1 %10, label %11, label %.thread

11:                                               ; preds = %7
  %12 = getelementptr inbounds nuw i8, ptr %0, i64 784
  %13 = load i64, ptr %12, align 8, !tbaa !76
  %.not20 = icmp eq i64 %13, 0
  br i1 %.not20, label %.thread, label %14

14:                                               ; preds = %11
  %15 = getelementptr inbounds nuw i8, ptr %0, i64 776
  %16 = load i64, ptr %15, align 8, !tbaa !77
  %17 = icmp slt i64 %9, %16
  %18 = getelementptr inbounds nuw i8, ptr %0, i64 3128
  br i1 %17, label %19, label %30

19:                                               ; preds = %14
  %20 = load i64, ptr %18, align 8, !tbaa !78
  %.not21 = icmp eq i64 %20, 0
  br i1 %.not21, label %21, label %22

21:                                               ; preds = %19
  store i64 %1, ptr %18, align 8, !tbaa !79
  %.sroa.3.0..sroa_idx = getelementptr inbounds nuw i8, ptr %0, i64 3136
  store i32 %2, ptr %.sroa.3.0..sroa_idx, align 8, !tbaa !80
  br label %.thread

22:                                               ; preds = %19
  %23 = getelementptr inbounds nuw i8, ptr %0, i64 3136
  %24 = load i32, ptr %23, align 8
  %25 = tail call i64 @Curl_timediff(i64 %1, i32 %2, i64 %20, i32 %24) #4
  %26 = load i64, ptr %12, align 8, !tbaa !76
  %27 = mul nsw i64 %26, 1000
  %.not22.not = icmp slt i64 %25, %27
  br i1 %.not22.not, label %.thread, label %28

28:                                               ; preds = %22
  %29 = load i64, ptr %15, align 8, !tbaa !77
  tail call void (ptr, ptr, ...) @Curl_failf(ptr noundef nonnull %0, ptr noundef nonnull @.str, i64 noundef %29, i64 noundef %26) #4
  br label %34

30:                                               ; preds = %14
  store i64 0, ptr %18, align 8, !tbaa !78
  br label %.thread

.thread:                                          ; preds = %22, %30, %21, %11, %7
  %31 = getelementptr inbounds nuw i8, ptr %0, i64 776
  %32 = load i64, ptr %31, align 8, !tbaa !77
  %.not23 = icmp eq i64 %32, 0
  br i1 %.not23, label %34, label %33

33:                                               ; preds = %.thread
  tail call void @Curl_expire(ptr noundef nonnull %0, i64 noundef 1000, i32 noundef 9) #4
  br label %34

34:                                               ; preds = %28, %.thread, %33, %3
  %.017 = phi i32 [ 28, %28 ], [ 0, %3 ], [ 0, %33 ], [ 0, %.thread ]
  ret i32 %.017
}